target datalayout = "e-m:e-p270:32:32-p271:32:32-p272:64:64-i64:64-i128:128-f80:128-n8:16:32:64-S128"
target triple = "x86_64-pc-linux-gnu"

%struct.AVRational = type { i32, i32 }
%struct.AVCodecParameters = type { i32, i32, i32, ptr, i32, ptr, i32, i32, i64, i32, i32, i32, i32, i32, i32, %struct.AVRational, %struct.AVRational, i32, i32, i32, i32, i32, i32, i32, %struct.AVChannelLayout, i32, i32, i32, i32, i32, i32 }
%struct.AVChannelLayout = type { i32, i32, %union.anon, ptr }
%union.anon = type { i64 }

@.str.79 = private unnamed_addr constant [27 x i8] c"Unsupported Xiph codec ID\0A\00", align 1
@.str.80 = private unnamed_addr constant [20 x i8] c"Extradata corrupt.\0A\00", align 1
@.str.81 = private unnamed_addr constant [44 x i8] c"Not enough memory for configuration string\0A\00", align 1

; Function Attrs: nounwind uwtable
define internal i32 @xiph_extradata2config(ptr noundef %0, ptr noundef %1, ptr noundef %2) #0 {
  %4 = alloca i32, align 4
  %5 = alloca ptr, align 8
  %6 = alloca ptr, align 8
  %7 = alloca ptr, align 8
  %8 = alloca ptr, align 8
  %9 = alloca ptr, align 8
  %10 = alloca [3 x ptr], align 16
  %11 = alloca i32, align 4
  %12 = alloca [3 x i32], align 4
  %13 = alloca i32, align 4
  %14 = alloca i32, align 4
  %15 = alloca i32, align 4
  %16 = alloca i32, align 4
  store ptr %0, ptr %5, align 8, !tbaa !13
  store ptr %1, ptr %6, align 8, !tbaa !25
  store ptr %2, ptr %7, align 8, !tbaa !97
  call void @llvm.lifetime.start.p0(i64 8, ptr %8) #8
  call void @llvm.lifetime.start.p0(i64 8, ptr %9) #8
  call void @llvm.lifetime.start.p0(i64 24, ptr %10) #8
  call void @llvm.lifetime.start.p0(i64 4, ptr %11) #8
  call void @llvm.lifetime.start.p0(i64 12, ptr %12) #8
  call void @llvm.lifetime.start.p0(i64 4, ptr %13) #8
  call void @llvm.lifetime.start.p0(i64 4, ptr %14) #8
  call void @llvm.lifetime.start.p0(i64 4, ptr %15) #8
  %17 = load ptr, ptr %7, align 8, !tbaa !97
  store ptr null, ptr %17, align 8, !tbaa !4
  %18 = load ptr, ptr %6, align 8, !tbaa !25
  %19 = getelementptr inbounds nuw %struct.AVCodecParameters, ptr %18, i32 0, i32 1
  %20 = load i32, ptr %19, align 4, !tbaa !30
  switch i32 %20, label %23 [
    i32 30, label %21
    i32 86021, label %22
  ]

21:                                               ; preds = %3
  store i32 42, ptr %14, align 4, !tbaa !9
  br label %25

22:                                               ; preds = %3
  store i32 30, ptr %14, align 4, !tbaa !9
  br label %25

23:                                               ; preds = %3
  %24 = load ptr, ptr %5, align 8, !tbaa !13
  call void (ptr, i32, ptr, ...) @av_log(ptr noundef %24, i32 noundef 16, ptr noundef @.str.79)
  store i32 -38, ptr %4, align 4
  store i32 1, ptr %16, align 4
  br label %134

25:                                               ; preds = %22, %21
  %26 = load ptr, ptr %6, align 8, !tbaa !25
  %27 = getelementptr inbounds nuw %struct.AVCodecParameters, ptr %26, i32 0, i32 3
  %28 = load ptr, ptr %27, align 8, !tbaa !99
  %29 = load ptr, ptr %6, align 8, !tbaa !25
  %30 = getelementptr inbounds nuw %struct.AVCodecParameters, ptr %29, i32 0, i32 4
  %31 = load i32, ptr %30, align 8, !tbaa !31
  %32 = load i32, ptr %14, align 4, !tbaa !9
  %33 = getelementptr inbounds [3 x ptr], ptr %10, i64 0, i64 0
  %34 = getelementptr inbounds [3 x i32], ptr %12, i64 0, i64 0
  %35 = call i32 @avpriv_split_xiph_headers(ptr noundef %28, i32 noundef %31, i32 noundef %32, ptr noundef %33, ptr noundef %34)
  store i32 %35, ptr %15, align 4, !tbaa !9
  %36 = load i32, ptr %15, align 4, !tbaa !9
  %37 = icmp slt i32 %36, 0
  br i1 %37, label %38, label %41

38:                                               ; preds = %25
  %39 = load ptr, ptr %5, align 8, !tbaa !13
  call void (ptr, i32, ptr, ...) @av_log(ptr noundef %39, i32 noundef 16, ptr noundef @.str.80)
  %40 = load i32, ptr %15, align 4, !tbaa !9
  store i32 %40, ptr %4, align 4
  store i32 1, ptr %16, align 4
  br label %134

41:                                               ; preds = %25
  %42 = getelementptr inbounds [3 x i32], ptr %12, i64 0, i64 0
  %43 = load i32, ptr %42, align 4, !tbaa !9
  %44 = getelementptr inbounds [3 x i32], ptr %12, i64 0, i64 2
  %45 = load i32, ptr %44, align 4, !tbaa !9
  %46 = add nsw i32 %43, %45
  store i32 %46, ptr %11, align 4, !tbaa !9
  %47 = load i32, ptr %11, align 4, !tbaa !9
  %48 = add nsw i32 12, %47
  store i32 %48, ptr %13, align 4, !tbaa !9
  %49 = load i32, ptr %13, align 4, !tbaa !9
  %50 = sext i32 %49 to i64
  %51 = call noalias ptr @av_malloc(i64 noundef %50)
  store ptr %51, ptr %8, align 8, !tbaa !4
  %52 = load ptr, ptr %8, align 8, !tbaa !4
  %53 = icmp ne ptr %52, null
  br i1 %53, label %55, label %54

54:                                               ; preds = %41
  br label %132

55:                                               ; preds = %41
  %56 = load i32, ptr %13, align 4, !tbaa !9
  %57 = add nsw i32 %56, 2
  %58 = sdiv i32 %57, 3
  %59 = mul nsw i32 %58, 4
  %60 = add nsw i32 %59, 1
  %61 = sext i32 %60 to i64
  %62 = call noalias ptr @av_malloc(i64 noundef %61)
  store ptr %62, ptr %9, align 8, !tbaa !4
  %63 = load ptr, ptr %9, align 8, !tbaa !4
  %64 = icmp ne ptr %63, null
  br i1 %64, label %67, label %65

65:                                               ; preds = %55
  %66 = load ptr, ptr %8, align 8, !tbaa !4
  call void @av_free(ptr noundef %66)
  br label %132

67:                                               ; preds = %55
  %68 = load ptr, ptr %8, align 8, !tbaa !4
  %69 = getelementptr inbounds i8, ptr %68, i64 2
  store i8 0, ptr %69, align 1, !tbaa !69
  %70 = load ptr, ptr %8, align 8, !tbaa !4
  %71 = getelementptr inbounds i8, ptr %70, i64 1
  store i8 0, ptr %71, align 1, !tbaa !69
  %72 = load ptr, ptr %8, align 8, !tbaa !4
  %73 = getelementptr inbounds i8, ptr %72, i64 0
  store i8 0, ptr %73, align 1, !tbaa !69
  %74 = load ptr, ptr %8, align 8, !tbaa !4
  %75 = getelementptr inbounds i8, ptr %74, i64 3
  store i8 1, ptr %75, align 1, !tbaa !69
  %76 = load ptr, ptr %8, align 8, !tbaa !4
  %77 = getelementptr inbounds i8, ptr %76, i64 4
  store i8 -2, ptr %77, align 1, !tbaa !69
  %78 = load ptr, ptr %8, align 8, !tbaa !4
  %79 = getelementptr inbounds i8, ptr %78, i64 5
  store i8 -51, ptr %79, align 1, !tbaa !69
  %80 = load ptr, ptr %8, align 8, !tbaa !4
  %81 = getelementptr inbounds i8, ptr %80, i64 6
  store i8 -70, ptr %81, align 1, !tbaa !69
  %82 = load i32, ptr %11, align 4, !tbaa !9
  %83 = ashr i32 %82, 8
  %84 = and i32 %83, 255
  %85 = trunc i32 %84 to i8
  %86 = load ptr, ptr %8, align 8, !tbaa !4
  %87 = getelementptr inbounds i8, ptr %86, i64 7
  store i8 %85, ptr %87, align 1, !tbaa !69
  %88 = load i32, ptr %11, align 4, !tbaa !9
  %89 = and i32 %88, 255
  %90 = trunc i32 %89 to i8
  %91 = load ptr, ptr %8, align 8, !tbaa !4
  %92 = getelementptr inbounds i8, ptr %91, i64 8
  store i8 %90, ptr %92, align 1, !tbaa !69
  %93 = load ptr, ptr %8, align 8, !tbaa !4
  %94 = getelementptr inbounds i8, ptr %93, i64 9
  store i8 2, ptr %94, align 1, !tbaa !69
  %95 = getelementptr inbounds [3 x i32], ptr %12, i64 0, i64 0
  %96 = load i32, ptr %95, align 4, !tbaa !9
  %97 = trunc i32 %96 to i8
  %98 = load ptr, ptr %8, align 8, !tbaa !4
  %99 = getelementptr inbounds i8, ptr %98, i64 10
  store i8 %97, ptr %99, align 1, !tbaa !69
  %100 = load ptr, ptr %8, align 8, !tbaa !4
  %101 = getelementptr inbounds i8, ptr %100, i64 11
  store i8 0, ptr %101, align 1, !tbaa !69
  %102 = load ptr, ptr %8, align 8, !tbaa !4
  %103 = getelementptr inbounds i8, ptr %102, i64 12
  %104 = getelementptr inbounds [3 x ptr], ptr %10, i64 0, i64 0
  %105 = load ptr, ptr %104, align 16, !tbaa !4
  %106 = getelementptr inbounds [3 x i32], ptr %12, i64 0, i64 0
  %107 = load i32, ptr %106, align 4, !tbaa !9
  %108 = sext i32 %107 to i64
  call void @llvm.memcpy.p0.p0.i64(ptr align 1 %103, ptr align 1 %105, i64 %108, i1 false)
  %109 = load ptr, ptr %8, align 8, !tbaa !4
  %110 = getelementptr inbounds i8, ptr %109, i64 12
  %111 = getelementptr inbounds [3 x i32], ptr %12, i64 0, i64 0
  %112 = load i32, ptr %111, align 4, !tbaa !9
  %113 = sext i32 %112 to i64
  %114 = getelementptr inbounds i8, ptr %110, i64 %113
  %115 = getelementptr inbounds [3 x ptr], ptr %10, i64 0, i64 2
  %116 = load ptr, ptr %115, align 16, !tbaa !4
  %117 = getelementptr inbounds [3 x i32], ptr %12, i64 0, i64 2
  %118 = load i32, ptr %117, align 4, !tbaa !9
  %119 = sext i32 %118 to i64
  call void @llvm.memcpy.p0.p0.i64(ptr align 1 %114, ptr align 1 %116, i64 %119, i1 false)
  %120 = load ptr, ptr %9, align 8, !tbaa !4
  %121 = load i32, ptr %13, align 4, !tbaa !9
  %122 = add nsw i32 %121, 2
  %123 = sdiv i32 %122, 3
  %124 = mul nsw i32 %123, 4
  %125 = add nsw i32 %124, 1
  %126 = load ptr, ptr %8, align 8, !tbaa !4
  %127 = load i32, ptr %13, align 4, !tbaa !9
  %128 = call ptr @av_base64_encode(ptr noundef %120, i32 noundef %125, ptr noundef %126, i32 noundef %127)
  %129 = load ptr, ptr %8, align 8, !tbaa !4
  call void @av_free(ptr noundef %129)
  %130 = load ptr, ptr %9, align 8, !tbaa !4
  %131 = load ptr, ptr %7, align 8, !tbaa !97
  store ptr %130, ptr %131, align 8, !tbaa !4
  store i32 0, ptr %4, align 4
  store i32 1, ptr %16, align 4
  br label %134

132:                                              ; preds = %65, %54
  %133 = load ptr, ptr %5, align 8, !tbaa !13
  call void (ptr, i32, ptr, ...) @av_log(ptr noundef %133, i32 noundef 16, ptr noundef @.str.81)
  store i32 -12, ptr %4, align 4
  store i32 1, ptr %16, align 4
  br label %134

134:                                              ; preds = %132, %67, %38, %23
  call void @llvm.lifetime.end.p0(i64 4, ptr %15) #8
  call void @llvm.lifetime.end.p0(i64 4, ptr %14) #8
  call void @llvm.lifetime.end.p0(i64 4, ptr %13) #8
  call void @llvm.lifetime.end.p0(i64 12, ptr %12) #8
  call void @llvm.lifetime.end.p0(i64 4, ptr %11) #8
  call void @llvm.lifetime.end.p0(i64 24, ptr %10) #8
  call void @llvm.lifetime.end.p0(i64 8, ptr %9) #8
  call void @llvm.lifetime.end.p0(i64 8, ptr %8) #8
  %135 = load i32, ptr %4, align 4
  ret i32 %135
}