; Function Attrs: nounwind uwtable
define internal fastcc range(i32 -2147483648, 1) i32 @xiph_extradata2config(ptr noundef %0, ptr noundef readonly captures(none) %1, ptr noundef nonnull writeonly captures(none) initializes((0, 8)) %2) unnamed_addr #0 {
  %4 = alloca [3 x ptr], align 16
  %5 = alloca [3 x i32], align 4
  call void @llvm.lifetime.start.p0(i64 24, ptr nonnull %4) #10
  call void @llvm.lifetime.start.p0(i64 12, ptr nonnull %5) #10
  store ptr null, ptr %2, align 8, !tbaa !23
  %6 = getelementptr inbounds nuw i8, ptr %1, i64 4
  %7 = load i32, ptr %6, align 4, !tbaa !24
  switch i32 %7, label %9 [
    i32 30, label %10
    i32 86021, label %8
  ]

8:                                                ; preds = %3
  br label %10

9:                                                ; preds = %3
  tail call void (ptr, i32, ptr, ...) @av_log(ptr noundef %0, i32 noundef 16, ptr noundef nonnull @.str.79) #10
  br label %61

10:                                               ; preds = %3, %8
  %.039 = phi i32 [ 30, %8 ], [ 42, %3 ]
  %11 = getelementptr inbounds nuw i8, ptr %1, i64 16
  %12 = load ptr, ptr %11, align 8, !tbaa !26
  %13 = getelementptr inbounds nuw i8, ptr %1, i64 24
  %14 = load i32, ptr %13, align 8, !tbaa !25
  %15 = call i32 @avpriv_split_xiph_headers(ptr noundef %12, i32 noundef %14, i32 noundef %.039, ptr noundef nonnull %4, ptr noundef nonnull %5) #10
  %16 = icmp slt i32 %15, 0
  br i1 %16, label %17, label %18

17:                                               ; preds = %10
  call void (ptr, i32, ptr, ...) @av_log(ptr noundef %0, i32 noundef 16, ptr noundef nonnull @.str.80) #10
  br label %61

18:                                               ; preds = %10
  %19 = load i32, ptr %5, align 4, !tbaa !47
  %20 = getelementptr inbounds nuw i8, ptr %5, i64 8
  %21 = load i32, ptr %20, align 4, !tbaa !47
  %22 = add nsw i32 %21, %19
  %23 = add nsw i32 %22, 12
  %24 = sext i32 %23 to i64
  %25 = call noalias ptr @av_malloc(i64 noundef %24) #10
  %.not = icmp eq ptr %25, null
  br i1 %.not, label %60, label %26

26:                                               ; preds = %18
  %27 = add nsw i32 %22, 14
  %28 = sdiv i32 %27, 3
  %29 = shl nsw i32 %28, 2
  %30 = or disjoint i32 %29, 1
  %31 = sext i32 %30 to i64
  %32 = call noalias ptr @av_malloc(i64 noundef %31) #10
  %.not43 = icmp eq ptr %32, null
  br i1 %.not43, label %33, label %34

33:                                               ; preds = %26
  call void @av_free(ptr noundef nonnull %25) #10
  br label %60

34:                                               ; preds = %26
  %35 = getelementptr inbounds nuw i8, ptr %25, i64 2
  store i8 0, ptr %35, align 1, !tbaa !48
  %36 = getelementptr inbounds nuw i8, ptr %25, i64 1
  store i8 0, ptr %36, align 1, !tbaa !48
  store i8 0, ptr %25, align 1, !tbaa !48
  %37 = getelementptr inbounds nuw i8, ptr %25, i64 3
  store i8 1, ptr %37, align 1, !tbaa !48
  %38 = getelementptr inbounds nuw i8, ptr %25, i64 4
  store i8 -2, ptr %38, align 1, !tbaa !48
  %39 = getelementptr inbounds nuw i8, ptr %25, i64 5
  store i8 -51, ptr %39, align 1, !tbaa !48
  %40 = getelementptr inbounds nuw i8, ptr %25, i64 6
  store i8 -70, ptr %40, align 1, !tbaa !48
  %41 = lshr i32 %22, 8
  %42 = trunc i32 %41 to i8
  %43 = getelementptr inbounds nuw i8, ptr %25, i64 7
  store i8 %42, ptr %43, align 1, !tbaa !48
  %44 = trunc i32 %22 to i8
  %45 = getelementptr inbounds nuw i8, ptr %25, i64 8
  store i8 %44, ptr %45, align 1, !tbaa !48
  %46 = getelementptr inbounds nuw i8, ptr %25, i64 9
  store i8 2, ptr %46, align 1, !tbaa !48
  %47 = load i32, ptr %5, align 4, !tbaa !47
  %48 = trunc i32 %47 to i8
  %49 = getelementptr inbounds nuw i8, ptr %25, i64 10
  store i8 %48, ptr %49, align 1, !tbaa !48
  %50 = getelementptr inbounds nuw i8, ptr %25, i64 11
  store i8 0, ptr %50, align 1, !tbaa !48
  %51 = getelementptr inbounds nuw i8, ptr %25, i64 12
  %52 = load ptr, ptr %4, align 16, !tbaa !23
  %53 = sext i32 %47 to i64
  call void @llvm.memcpy.p0.p0.i64(ptr nonnull align 1 %51, ptr align 1 %52, i64 %53, i1 false)
  %54 = getelementptr inbounds i8, ptr %51, i64 %53
  %55 = getelementptr inbounds nuw i8, ptr %4, i64 16
  %56 = load ptr, ptr %55, align 16, !tbaa !23
  %57 = load i32, ptr %20, align 4, !tbaa !47
  %58 = sext i32 %57 to i64
  call void @llvm.memcpy.p0.p0.i64(ptr nonnull align 1 %54, ptr align 1 %56, i64 %58, i1 false)
  %59 = call ptr @av_base64_encode(ptr noundef nonnull %32, i32 noundef %30, ptr noundef nonnull %25, i32 noundef %23) #10
  call void @av_free(ptr noundef nonnull %25) #10
  store ptr %32, ptr %2, align 8, !tbaa !23
  br label %61

60:                                               ; preds = %18, %33
  call void (ptr, i32, ptr, ...) @av_log(ptr noundef %0, i32 noundef 16, ptr noundef nonnull @.str.81) #10
  br label %61

61:                                               ; preds = %60, %34, %17, %9
  %.0 = phi i32 [ -38, %9 ], [ %15, %17 ], [ 0, %34 ], [ -12, %60 ]
  call void @llvm.lifetime.end.p0(i64 12, ptr nonnull %5) #10
  call void @llvm.lifetime.end.p0(i64 24, ptr nonnull %4) #10
  ret i32 %.0
}